
vuln:     file format elf64-x86-64


Disassembly of section .init:

0000000000001000 <_init>:
    1000:	f3 0f 1e fa          	endbr64 
    1004:	48 83 ec 08          	sub    $0x8,%rsp
    1008:	48 8b 05 d9 2f 00 00 	mov    0x2fd9(%rip),%rax        # 3fe8 <__gmon_start__>
    100f:	48 85 c0             	test   %rax,%rax
    1012:	74 02                	je     1016 <_init+0x16>
    1014:	ff d0                	callq  *%rax
    1016:	48 83 c4 08          	add    $0x8,%rsp
    101a:	c3                   	retq   

Disassembly of section .plt:

0000000000001020 <.plt>:
    1020:	ff 35 62 2f 00 00    	pushq  0x2f62(%rip)        # 3f88 <_GLOBAL_OFFSET_TABLE_+0x8>
    1026:	f2 ff 25 63 2f 00 00 	bnd jmpq *0x2f63(%rip)        # 3f90 <_GLOBAL_OFFSET_TABLE_+0x10>
    102d:	0f 1f 00             	nopl   (%rax)
    1030:	f3 0f 1e fa          	endbr64 
    1034:	68 00 00 00 00       	pushq  $0x0
    1039:	f2 e9 e1 ff ff ff    	bnd jmpq 1020 <.plt>
    103f:	90                   	nop
    1040:	f3 0f 1e fa          	endbr64 
    1044:	68 01 00 00 00       	pushq  $0x1
    1049:	f2 e9 d1 ff ff ff    	bnd jmpq 1020 <.plt>
    104f:	90                   	nop
    1050:	f3 0f 1e fa          	endbr64 
    1054:	68 02 00 00 00       	pushq  $0x2
    1059:	f2 e9 c1 ff ff ff    	bnd jmpq 1020 <.plt>
    105f:	90                   	nop
    1060:	f3 0f 1e fa          	endbr64 
    1064:	68 03 00 00 00       	pushq  $0x3
    1069:	f2 e9 b1 ff ff ff    	bnd jmpq 1020 <.plt>
    106f:	90                   	nop
    1070:	f3 0f 1e fa          	endbr64 
    1074:	68 04 00 00 00       	pushq  $0x4
    1079:	f2 e9 a1 ff ff ff    	bnd jmpq 1020 <.plt>
    107f:	90                   	nop
    1080:	f3 0f 1e fa          	endbr64 
    1084:	68 05 00 00 00       	pushq  $0x5
    1089:	f2 e9 91 ff ff ff    	bnd jmpq 1020 <.plt>
    108f:	90                   	nop
    1090:	f3 0f 1e fa          	endbr64 
    1094:	68 06 00 00 00       	pushq  $0x6
    1099:	f2 e9 81 ff ff ff    	bnd jmpq 1020 <.plt>
    109f:	90                   	nop
    10a0:	f3 0f 1e fa          	endbr64 
    10a4:	68 07 00 00 00       	pushq  $0x7
    10a9:	f2 e9 71 ff ff ff    	bnd jmpq 1020 <.plt>
    10af:	90                   	nop

Disassembly of section .plt.got:

00000000000010b0 <__cxa_finalize@plt>:
    10b0:	f3 0f 1e fa          	endbr64 
    10b4:	f2 ff 25 3d 2f 00 00 	bnd jmpq *0x2f3d(%rip)        # 3ff8 <__cxa_finalize@GLIBC_2.2.5>
    10bb:	0f 1f 44 00 00       	nopl   0x0(%rax,%rax,1)

Disassembly of section .plt.sec:

00000000000010c0 <puts@plt>:
    10c0:	f3 0f 1e fa          	endbr64 
    10c4:	f2 ff 25 cd 2e 00 00 	bnd jmpq *0x2ecd(%rip)        # 3f98 <puts@GLIBC_2.2.5>
    10cb:	0f 1f 44 00 00       	nopl   0x0(%rax,%rax,1)

00000000000010d0 <__stack_chk_fail@plt>:
    10d0:	f3 0f 1e fa          	endbr64 
    10d4:	f2 ff 25 c5 2e 00 00 	bnd jmpq *0x2ec5(%rip)        # 3fa0 <__stack_chk_fail@GLIBC_2.4>
    10db:	0f 1f 44 00 00       	nopl   0x0(%rax,%rax,1)

00000000000010e0 <fgets@plt>:
    10e0:	f3 0f 1e fa          	endbr64 
    10e4:	f2 ff 25 bd 2e 00 00 	bnd jmpq *0x2ebd(%rip)        # 3fa8 <fgets@GLIBC_2.2.5>
    10eb:	0f 1f 44 00 00       	nopl   0x0(%rax,%rax,1)

00000000000010f0 <gets@plt>:
    10f0:	f3 0f 1e fa          	endbr64 
    10f4:	f2 ff 25 b5 2e 00 00 	bnd jmpq *0x2eb5(%rip)        # 3fb0 <gets@GLIBC_2.2.5>
    10fb:	0f 1f 44 00 00       	nopl   0x0(%rax,%rax,1)

0000000000001100 <fflush@plt>:
    1100:	f3 0f 1e fa          	endbr64 
    1104:	f2 ff 25 ad 2e 00 00 	bnd jmpq *0x2ead(%rip)        # 3fb8 <fflush@GLIBC_2.2.5>
    110b:	0f 1f 44 00 00       	nopl   0x0(%rax,%rax,1)

0000000000001110 <setvbuf@plt>:
    1110:	f3 0f 1e fa          	endbr64 
    1114:	f2 ff 25 a5 2e 00 00 	bnd jmpq *0x2ea5(%rip)        # 3fc0 <setvbuf@GLIBC_2.2.5>
    111b:	0f 1f 44 00 00       	nopl   0x0(%rax,%rax,1)

0000000000001120 <fopen@plt>:
    1120:	f3 0f 1e fa          	endbr64 
    1124:	f2 ff 25 9d 2e 00 00 	bnd jmpq *0x2e9d(%rip)        # 3fc8 <fopen@GLIBC_2.2.5>
    112b:	0f 1f 44 00 00       	nopl   0x0(%rax,%rax,1)

0000000000001130 <exit@plt>:
    1130:	f3 0f 1e fa          	endbr64 
    1134:	f2 ff 25 95 2e 00 00 	bnd jmpq *0x2e95(%rip)        # 3fd0 <exit@GLIBC_2.2.5>
    113b:	0f 1f 44 00 00       	nopl   0x0(%rax,%rax,1)

Disassembly of section .text:

0000000000001140 <_start>:
    1140:	f3 0f 1e fa          	endbr64 
    1144:	31 ed                	xor    %ebp,%ebp
    1146:	49 89 d1             	mov    %rdx,%r9
    1149:	5e                   	pop    %rsi
    114a:	48 89 e2             	mov    %rsp,%rdx
    114d:	48 83 e4 f0          	and    $0xfffffffffffffff0,%rsp
    1151:	50                   	push   %rax
    1152:	54                   	push   %rsp
    1153:	4c 8d 05 76 02 00 00 	lea    0x276(%rip),%r8        # 13d0 <__libc_csu_fini>
    115a:	48 8d 0d ff 01 00 00 	lea    0x1ff(%rip),%rcx        # 1360 <__libc_csu_init>
    1161:	48 8d 3d ac 01 00 00 	lea    0x1ac(%rip),%rdi        # 1314 <main>
    1168:	ff 15 72 2e 00 00    	callq  *0x2e72(%rip)        # 3fe0 <__libc_start_main@GLIBC_2.2.5>
    116e:	f4                   	hlt    
    116f:	90                   	nop

0000000000001170 <deregister_tm_clones>:
    1170:	48 8d 3d 99 2e 00 00 	lea    0x2e99(%rip),%rdi        # 4010 <stdout@@GLIBC_2.2.5>
    1177:	48 8d 05 92 2e 00 00 	lea    0x2e92(%rip),%rax        # 4010 <stdout@@GLIBC_2.2.5>
    117e:	48 39 f8             	cmp    %rdi,%rax
    1181:	74 15                	je     1198 <deregister_tm_clones+0x28>
    1183:	48 8b 05 4e 2e 00 00 	mov    0x2e4e(%rip),%rax        # 3fd8 <_ITM_deregisterTMCloneTable>
    118a:	48 85 c0             	test   %rax,%rax
    118d:	74 09                	je     1198 <deregister_tm_clones+0x28>
    118f:	ff e0                	jmpq   *%rax
    1191:	0f 1f 80 00 00 00 00 	nopl   0x0(%rax)
    1198:	c3                   	retq   
    1199:	0f 1f 80 00 00 00 00 	nopl   0x0(%rax)

00000000000011a0 <register_tm_clones>:
    11a0:	48 8d 3d 69 2e 00 00 	lea    0x2e69(%rip),%rdi        # 4010 <stdout@@GLIBC_2.2.5>
    11a7:	48 8d 35 62 2e 00 00 	lea    0x2e62(%rip),%rsi        # 4010 <stdout@@GLIBC_2.2.5>
    11ae:	48 29 fe             	sub    %rdi,%rsi
    11b1:	48 89 f0             	mov    %rsi,%rax
    11b4:	48 c1 ee 3f          	shr    $0x3f,%rsi
    11b8:	48 c1 f8 03          	sar    $0x3,%rax
    11bc:	48 01 c6             	add    %rax,%rsi
    11bf:	48 d1 fe             	sar    %rsi
    11c2:	74 14                	je     11d8 <register_tm_clones+0x38>
    11c4:	48 8b 05 25 2e 00 00 	mov    0x2e25(%rip),%rax        # 3ff0 <_ITM_registerTMCloneTable>
    11cb:	48 85 c0             	test   %rax,%rax
    11ce:	74 08                	je     11d8 <register_tm_clones+0x38>
    11d0:	ff e0                	jmpq   *%rax
    11d2:	66 0f 1f 44 00 00    	nopw   0x0(%rax,%rax,1)
    11d8:	c3                   	retq   
    11d9:	0f 1f 80 00 00 00 00 	nopl   0x0(%rax)

00000000000011e0 <__do_global_dtors_aux>:
    11e0:	f3 0f 1e fa          	endbr64 
    11e4:	80 3d 2d 2e 00 00 00 	cmpb   $0x0,0x2e2d(%rip)        # 4018 <completed.8060>
    11eb:	75 2b                	jne    1218 <__do_global_dtors_aux+0x38>
    11ed:	55                   	push   %rbp
    11ee:	48 83 3d 02 2e 00 00 	cmpq   $0x0,0x2e02(%rip)        # 3ff8 <__cxa_finalize@GLIBC_2.2.5>
    11f5:	00 
    11f6:	48 89 e5             	mov    %rsp,%rbp
    11f9:	74 0c                	je     1207 <__do_global_dtors_aux+0x27>
    11fb:	48 8b 3d 06 2e 00 00 	mov    0x2e06(%rip),%rdi        # 4008 <__dso_handle>
    1202:	e8 a9 fe ff ff       	callq  10b0 <__cxa_finalize@plt>
    1207:	e8 64 ff ff ff       	callq  1170 <deregister_tm_clones>
    120c:	c6 05 05 2e 00 00 01 	movb   $0x1,0x2e05(%rip)        # 4018 <completed.8060>
    1213:	5d                   	pop    %rbp
    1214:	c3                   	retq   
    1215:	0f 1f 00             	nopl   (%rax)
    1218:	c3                   	retq   
    1219:	0f 1f 80 00 00 00 00 	nopl   0x0(%rax)

0000000000001220 <frame_dummy>:
    1220:	f3 0f 1e fa          	endbr64 
    1224:	e9 77 ff ff ff       	jmpq   11a0 <register_tm_clones>

0000000000001229 <win>:
    1229:	f3 0f 1e fa          	endbr64 
    122d:	55                   	push   %rbp
    122e:	48 89 e5             	mov    %rsp,%rbp
    1231:	48 83 ec 60          	sub    $0x60,%rsp
    1235:	64 48 8b 04 25 28 00 	mov    %fs:0x28,%rax
    123c:	00 00 
    123e:	48 89 45 f8          	mov    %rax,-0x8(%rbp)
    1242:	31 c0                	xor    %eax,%eax
    1244:	48 8d 35 bd 0d 00 00 	lea    0xdbd(%rip),%rsi        # 2008 <_IO_stdin_used+0x8>
    124b:	48 8d 3d b8 0d 00 00 	lea    0xdb8(%rip),%rdi        # 200a <_IO_stdin_used+0xa>
    1252:	e8 c9 fe ff ff       	callq  1120 <fopen@plt>
    1257:	48 89 45 a8          	mov    %rax,-0x58(%rbp)
    125b:	48 83 7d a8 00       	cmpq   $0x0,-0x58(%rbp)
    1260:	75 16                	jne    1278 <win+0x4f>
    1262:	48 8d 3d af 0d 00 00 	lea    0xdaf(%rip),%rdi        # 2018 <_IO_stdin_used+0x18>
    1269:	e8 52 fe ff ff       	callq  10c0 <puts@plt>
    126e:	bf 00 00 00 00       	mov    $0x0,%edi
    1273:	e8 b8 fe ff ff       	callq  1130 <exit@plt>
    1278:	48 8b 55 a8          	mov    -0x58(%rbp),%rdx
    127c:	48 8d 45 b0          	lea    -0x50(%rbp),%rax
    1280:	be 40 00 00 00       	mov    $0x40,%esi
    1285:	48 89 c7             	mov    %rax,%rdi
    1288:	e8 53 fe ff ff       	callq  10e0 <fgets@plt>
    128d:	48 8d 45 b0          	lea    -0x50(%rbp),%rax
    1291:	48 89 c7             	mov    %rax,%rdi
    1294:	e8 27 fe ff ff       	callq  10c0 <puts@plt>
    1299:	48 8b 05 70 2d 00 00 	mov    0x2d70(%rip),%rax        # 4010 <stdout@@GLIBC_2.2.5>
    12a0:	48 89 c7             	mov    %rax,%rdi
    12a3:	e8 58 fe ff ff       	callq  1100 <fflush@plt>
    12a8:	90                   	nop
    12a9:	48 8b 45 f8          	mov    -0x8(%rbp),%rax
    12ad:	64 48 33 04 25 28 00 	xor    %fs:0x28,%rax
    12b4:	00 00 
    12b6:	74 05                	je     12bd <win+0x94>
    12b8:	e8 13 fe ff ff       	callq  10d0 <__stack_chk_fail@plt>
    12bd:	c9                   	leaveq 
    12be:	c3                   	retq   

00000000000012bf <vuln>:
    12bf:	f3 0f 1e fa          	endbr64 
    12c3:	55                   	push   %rbp
    12c4:	48 89 e5             	mov    %rsp,%rbp
    12c7:	48 81 ec 90 00 00 00 	sub    $0x90,%rsp
    12ce:	64 48 8b 04 25 28 00 	mov    %fs:0x28,%rax
    12d5:	00 00 
    12d7:	48 89 45 f8          	mov    %rax,-0x8(%rbp)
    12db:	31 c0                	xor    %eax,%eax
    12dd:	48 8d 3d 5d 0d 00 00 	lea    0xd5d(%rip),%rdi        # 2041 <_IO_stdin_used+0x41>
    12e4:	e8 d7 fd ff ff       	callq  10c0 <puts@plt>
    12e9:	48 8d 85 70 ff ff ff 	lea    -0x90(%rbp),%rax
    12f0:	48 89 c7             	mov    %rax,%rdi
    12f3:	b8 00 00 00 00       	mov    $0x0,%eax
    12f8:	e8 f3 fd ff ff       	callq  10f0 <gets@plt>
    12fd:	90                   	nop
    12fe:	48 8b 45 f8          	mov    -0x8(%rbp),%rax
    1302:	64 48 33 04 25 28 00 	xor    %fs:0x28,%rax
    1309:	00 00 
    130b:	74 05                	je     1312 <vuln+0x53>
    130d:	e8 be fd ff ff       	callq  10d0 <__stack_chk_fail@plt>
    1312:	c9                   	leaveq 
    1313:	c3                   	retq   

0000000000001314 <main>:
    1314:	f3 0f 1e fa          	endbr64 
    1318:	55                   	push   %rbp
    1319:	48 89 e5             	mov    %rsp,%rbp
    131c:	48 83 ec 10          	sub    $0x10,%rsp
    1320:	89 7d fc             	mov    %edi,-0x4(%rbp)
    1323:	48 89 75 f0          	mov    %rsi,-0x10(%rbp)
    1327:	48 8b 05 e2 2c 00 00 	mov    0x2ce2(%rip),%rax        # 4010 <stdout@@GLIBC_2.2.5>
    132e:	b9 00 00 00 00       	mov    $0x0,%ecx
    1333:	ba 02 00 00 00       	mov    $0x2,%edx
    1338:	be 00 00 00 00       	mov    $0x0,%esi
    133d:	48 89 c7             	mov    %rax,%rdi
    1340:	e8 cb fd ff ff       	callq  1110 <setvbuf@plt>
    1345:	b8 00 00 00 00       	mov    $0x0,%eax
    134a:	e8 70 ff ff ff       	callq  12bf <vuln>
    134f:	b8 00 00 00 00       	mov    $0x0,%eax
    1354:	c9                   	leaveq 
    1355:	c3                   	retq   
    1356:	66 2e 0f 1f 84 00 00 	nopw   %cs:0x0(%rax,%rax,1)
    135d:	00 00 00 

0000000000001360 <__libc_csu_init>:
    1360:	f3 0f 1e fa          	endbr64 
    1364:	41 57                	push   %r15
    1366:	4c 8d 3d 13 2a 00 00 	lea    0x2a13(%rip),%r15        # 3d80 <__frame_dummy_init_array_entry>
    136d:	41 56                	push   %r14
    136f:	49 89 d6             	mov    %rdx,%r14
    1372:	41 55                	push   %r13
    1374:	49 89 f5             	mov    %rsi,%r13
    1377:	41 54                	push   %r12
    1379:	41 89 fc             	mov    %edi,%r12d
    137c:	55                   	push   %rbp
    137d:	48 8d 2d 04 2a 00 00 	lea    0x2a04(%rip),%rbp        # 3d88 <__do_global_dtors_aux_fini_array_entry>
    1384:	53                   	push   %rbx
    1385:	4c 29 fd             	sub    %r15,%rbp
    1388:	48 83 ec 08          	sub    $0x8,%rsp
    138c:	e8 6f fc ff ff       	callq  1000 <_init>
    1391:	48 c1 fd 03          	sar    $0x3,%rbp
    1395:	74 1f                	je     13b6 <__libc_csu_init+0x56>
    1397:	31 db                	xor    %ebx,%ebx
    1399:	0f 1f 80 00 00 00 00 	nopl   0x0(%rax)
    13a0:	4c 89 f2             	mov    %r14,%rdx
    13a3:	4c 89 ee             	mov    %r13,%rsi
    13a6:	44 89 e7             	mov    %r12d,%edi
    13a9:	41 ff 14 df          	callq  *(%r15,%rbx,8)
    13ad:	48 83 c3 01          	add    $0x1,%rbx
    13b1:	48 39 dd             	cmp    %rbx,%rbp
    13b4:	75 ea                	jne    13a0 <__libc_csu_init+0x40>
    13b6:	48 83 c4 08          	add    $0x8,%rsp
    13ba:	5b                   	pop    %rbx
    13bb:	5d                   	pop    %rbp
    13bc:	41 5c                	pop    %r12
    13be:	41 5d                	pop    %r13
    13c0:	41 5e                	pop    %r14
    13c2:	41 5f                	pop    %r15
    13c4:	c3                   	retq   
    13c5:	66 66 2e 0f 1f 84 00 	data16 nopw %cs:0x0(%rax,%rax,1)
    13cc:	00 00 00 00 

00000000000013d0 <__libc_csu_fini>:
    13d0:	f3 0f 1e fa          	endbr64 
    13d4:	c3                   	retq   

Disassembly of section .fini:

00000000000013d8 <_fini>:
    13d8:	f3 0f 1e fa          	endbr64 
    13dc:	48 83 ec 08          	sub    $0x8,%rsp
    13e0:	48 83 c4 08          	add    $0x8,%rsp
    13e4:	c3                   	retq   
